target datalayout = "e-m:e-p270:32:32-p271:32:32-p272:64:64-i64:64-i128:128-f80:128-n8:16:32:64-S128"
target triple = "x86_64-pc-linux-gnu"

%struct.PQExpBufferData = type { ptr, i64, i64 }

@.str.22 = private unnamed_addr constant [26 x i8] c"ALTER USER %s PASSWORD %s\00", align 1

; Function Attrs: nounwind uwtable
define ptr @PQchangePassword(ptr noundef %0, ptr noundef %1, ptr noundef %2) #0 {
  %4 = alloca ptr, align 8
  %5 = alloca ptr, align 8
  %6 = alloca ptr, align 8
  %7 = alloca ptr, align 8
  %8 = alloca ptr, align 8
  %9 = alloca i32, align 4
  %10 = alloca ptr, align 8
  %11 = alloca ptr, align 8
  %12 = alloca %struct.PQExpBufferData, align 8
  %13 = alloca ptr, align 8
  store ptr %0, ptr %5, align 8
  store ptr %1, ptr %6, align 8
  store ptr %2, ptr %7, align 8
  call void @llvm.lifetime.start.p0(i64 8, ptr %8) #7
  %14 = load ptr, ptr %5, align 8
  %15 = load ptr, ptr %7, align 8
  %16 = load ptr, ptr %6, align 8
  %17 = call ptr @PQencryptPasswordConn(ptr noundef %14, ptr noundef %15, ptr noundef %16, ptr noundef null)
  store ptr %17, ptr %8, align 8
  %18 = load ptr, ptr %8, align 8
  %19 = icmp ne ptr %18, null
  br i1 %19, label %21, label %20

20:                                               ; preds = %3
  store ptr null, ptr %4, align 8
  store i32 1, ptr %9, align 4
  br label %53

21:                                               ; preds = %3
  call void @llvm.lifetime.start.p0(i64 8, ptr %10) #7
  %22 = load ptr, ptr %5, align 8
  %23 = load ptr, ptr %8, align 8
  %24 = load ptr, ptr %8, align 8
  %25 = call i64 @strlen(ptr noundef %24) #9
  %26 = call ptr @PQescapeLiteral(ptr noundef %22, ptr noundef %23, i64 noundef %25)
  store ptr %26, ptr %10, align 8
  %27 = load ptr, ptr %8, align 8
  call void @PQfreemem(ptr noundef %27)
  %28 = load ptr, ptr %10, align 8
  %29 = icmp ne ptr %28, null
  br i1 %29, label %31, label %30

30:                                               ; preds = %21
  store ptr null, ptr %4, align 8
  store i32 1, ptr %9, align 4
  br label %52

31:                                               ; preds = %21
  call void @llvm.lifetime.start.p0(i64 8, ptr %11) #7
  %32 = load ptr, ptr %5, align 8
  %33 = load ptr, ptr %6, align 8
  %34 = load ptr, ptr %6, align 8
  %35 = call i64 @strlen(ptr noundef %34) #9
  %36 = call ptr @PQescapeIdentifier(ptr noundef %32, ptr noundef %33, i64 noundef %35)
  store ptr %36, ptr %11, align 8
  %37 = load ptr, ptr %11, align 8
  %38 = icmp ne ptr %37, null
  br i1 %38, label %41, label %39

39:                                               ; preds = %31
  %40 = load ptr, ptr %10, align 8
  call void @PQfreemem(ptr noundef %40)
  store ptr null, ptr %4, align 8
  store i32 1, ptr %9, align 4
  br label %51

41:                                               ; preds = %31
  call void @llvm.lifetime.start.p0(i64 24, ptr %12) #7
  call void @llvm.lifetime.start.p0(i64 8, ptr %13) #7
  call void @initPQExpBuffer(ptr noundef %12)
  %42 = load ptr, ptr %11, align 8
  %43 = load ptr, ptr %10, align 8
  call void (ptr, ptr, ...) @printfPQExpBuffer(ptr noundef %12, ptr noundef @.str.22, ptr noundef %42, ptr noundef %43)
  %44 = load ptr, ptr %5, align 8
  %45 = getelementptr inbounds nuw %struct.PQExpBufferData, ptr %12, i32 0, i32 0
  %46 = load ptr, ptr %45, align 8
  %47 = call ptr @PQexec(ptr noundef %44, ptr noundef %46)
  store ptr %47, ptr %13, align 8
  call void @termPQExpBuffer(ptr noundef %12)
  %48 = load ptr, ptr %11, align 8
  call void @PQfreemem(ptr noundef %48)
  %49 = load ptr, ptr %10, align 8
  call void @PQfreemem(ptr noundef %49)
  %50 = load ptr, ptr %13, align 8
  store ptr %50, ptr %4, align 8
  store i32 1, ptr %9, align 4
  call void @llvm.lifetime.end.p0(i64 8, ptr %13) #7
  call void @llvm.lifetime.end.p0(i64 24, ptr %12) #7
  br label %51

51:                                               ; preds = %41, %39
  call void @llvm.lifetime.end.p0(i64 8, ptr %11) #7
  br label %52

52:                                               ; preds = %51, %30
  call void @llvm.lifetime.end.p0(i64 8, ptr %10) #7
  br label %53

53:                                               ; preds = %52, %20
  call void @llvm.lifetime.end.p0(i64 8, ptr %8) #7
  %54 = load ptr, ptr %4, align 8
  ret ptr %54
}