; Function Attrs: nounwind uwtable
define ptr @PQchangePassword(ptr noundef %0, ptr noundef %1, ptr noundef %2) local_unnamed_addr #0 {
  %4 = alloca %struct.PQExpBufferData, align 8
  %5 = tail call ptr @PQencryptPasswordConn(ptr noundef %0, ptr noundef %2, ptr noundef %1, ptr noundef null)
  %.not = icmp eq ptr %5, null
  br i1 %.not, label %16, label %6

6:                                                ; preds = %3
  %7 = tail call i64 @strlen(ptr noundef nonnull dereferenceable(1) %5) #12
  %8 = tail call ptr @PQescapeLiteral(ptr noundef %0, ptr noundef nonnull %5, i64 noundef %7) #10
  tail call void @PQfreemem(ptr noundef nonnull %5) #10
  %.not24 = icmp eq ptr %8, null
  br i1 %.not24, label %16, label %9

9:                                                ; preds = %6
  %10 = tail call i64 @strlen(ptr noundef nonnull dereferenceable(1) %1) #12
  %11 = tail call ptr @PQescapeIdentifier(ptr noundef %0, ptr noundef nonnull %1, i64 noundef %10) #10
  %.not25 = icmp eq ptr %11, null
  br i1 %.not25, label %12, label %13

12:                                               ; preds = %9
  tail call void @PQfreemem(ptr noundef nonnull %8) #10
  br label %16

13:                                               ; preds = %9
  call void @llvm.lifetime.start.p0(i64 24, ptr nonnull %4) #10
  call void @initPQExpBuffer(ptr noundef nonnull %4) #10
  call void (ptr, ptr, ...) @printfPQExpBuffer(ptr noundef nonnull %4, ptr noundef nonnull @.str.22, ptr noundef nonnull %11, ptr noundef nonnull %8) #10
  %14 = load ptr, ptr %4, align 8
  %15 = call ptr @PQexec(ptr noundef %0, ptr noundef %14) #10
  call void @termPQExpBuffer(ptr noundef nonnull %4) #10
  call void @PQfreemem(ptr noundef nonnull %11) #10
  call void @PQfreemem(ptr noundef nonnull %8) #10
  call void @llvm.lifetime.end.p0(i64 24, ptr nonnull %4) #10
  br label %16

16:                                               ; preds = %6, %13, %12, %3
  %.0 = phi ptr [ null, %3 ], [ null, %6 ], [ %15, %13 ], [ null, %12 ]
  ret ptr %.0
}